target datalayout = "e-m:e-p270:32:32-p271:32:32-p272:64:64-i64:64-i128:128-f80:128-n8:16:32:64-S128"
target triple = "x86_64-pc-linux-gnu"

; Function Attrs: inlinehint mustprogress nofree norecurse nosync nounwind willreturn memory(argmem: readwrite) uwtable
define internal fastcc void @dt_XYZ_to_sRGB(ptr nocapture noundef readonly %0, ptr nocapture noundef writeonly %1) unnamed_addr #19 {
  %3 = getelementptr inbounds i8, ptr %0, i64 8
  %4 = load float, ptr %3, align 4, !tbaa !12
  %5 = fmul reassoc nsz arcp contract afn float %4, 0xBFDF663AC0000000
  %6 = load <2 x float>, ptr %0, align 4, !tbaa !12
  %7 = extractelement <2 x float> %6, i64 0
  %8 = fmul reassoc nsz arcp contract afn float %7, 0x4009122320000000
  %9 = extractelement <2 x float> %6, i64 1
  %10 = fmul reassoc nsz arcp contract afn float %9, 0xBFF9DEAFA0000000
  %11 = fadd reassoc nsz arcp contract afn float %10, %8
  %12 = fadd reassoc nsz arcp contract afn float %11, %5
  %13 = fmul reassoc nsz arcp contract afn <2 x float> %6, <float 0x3FB26B01E0000000, float 0x3FFEA88400000000>
  %14 = shufflevector <2 x float> %13, <2 x float> poison, <2 x i32> <i32 1, i32 0>
  %15 = fmul reassoc nsz arcp contract afn <2 x float> %6, <float 0xBFEF521220000000, float 0xBFCD4F9720000000>
  %16 = fadd reassoc nsz arcp contract afn <2 x float> %15, %14
  %17 = insertelement <2 x float> poison, float %4, i64 0
  %18 = shufflevector <2 x float> %17, <2 x float> poison, <2 x i32> zeroinitializer
  %19 = fmul reassoc nsz arcp contract afn <2 x float> %18, <float 0x3FA120E200000000, float 0x3FF67BDFC0000000>
  %20 = fadd reassoc nsz arcp contract afn <2 x float> %16, %19
  %21 = fadd reassoc nsz arcp contract afn float %9, %7
  %22 = fadd reassoc nsz arcp contract afn float %21, %4
  %23 = fmul reassoc nsz arcp contract afn float %22, 0.000000e+00
  %24 = shufflevector <2 x float> %20, <2 x float> poison, <4 x i32> <i32 poison, i32 0, i32 1, i32 poison>
  %25 = insertelement <4 x float> %24, float %12, i64 0
  %26 = insertelement <4 x float> %25, float %23, i64 3
  %27 = bitcast <4 x float> %26 to <4 x i32>
  %28 = and <4 x i32> %27, <i32 8388607, i32 8388607, i32 8388607, i32 8388607>
  %29 = or disjoint <4 x i32> %28, <i32 1065353216, i32 1065353216, i32 1065353216, i32 1065353216>
  %30 = bitcast <4 x i32> %29 to <4 x float>
  %31 = lshr <4 x i32> %27, <i32 23, i32 23, i32 23, i32 23>
  %32 = and <4 x i32> %31, <i32 255, i32 255, i32 255, i32 255>
  %33 = add nsw <4 x i32> %32, <i32 -127, i32 -127, i32 -127, i32 -127>
  %34 = sitofp <4 x i32> %33 to <4 x float>
  %35 = fmul reassoc nsz arcp contract afn <4 x float> %30, <float 0x3FAE8AA5E0000000, float 0x3FAE8AA5E0000000, float 0x3FAE8AA5E0000000, float 0x3FAE8AA5E0000000>
  %36 = fadd reassoc nsz arcp contract afn <4 x float> %35, <float 0xBFDDCE72E0000000, float 0xBFDDCE72E0000000, float 0xBFDDCE72E0000000, float 0xBFDDCE72E0000000>
  %37 = fmul reassoc nsz arcp contract afn <4 x float> %36, %30
  %38 = fadd reassoc nsz arcp contract afn <4 x float> %37, <float 0x3FF7B2DBA0000000, float 0x3FF7B2DBA0000000, float 0x3FF7B2DBA0000000, float 0x3FF7B2DBA0000000>
  %39 = fmul reassoc nsz arcp contract afn <4 x float> %38, %30
  %40 = fadd reassoc nsz arcp contract afn <4 x float> %39, <float 0xC0042A7EC0000000, float 0xC0042A7EC0000000, float 0xC0042A7EC0000000, float 0xC0042A7EC0000000>
  %41 = fmul reassoc nsz arcp contract afn <4 x float> %40, %30
  %42 = fadd reassoc nsz arcp contract afn <4 x float> %41, <float 0x40071B2D80000000, float 0x40071B2D80000000, float 0x40071B2D80000000, float 0x40071B2D80000000>
  %43 = fadd reassoc nsz arcp contract afn <4 x float> %30, <float -1.000000e+00, float -1.000000e+00, float -1.000000e+00, float -1.000000e+00>
  %44 = fmul reassoc nsz arcp contract afn <4 x float> %42, %43
  %45 = fadd reassoc nsz arcp contract afn <4 x float> %44, %34
  %46 = fmul reassoc nsz arcp contract afn <4 x float> %45, <float 0x3FDAAAAAA0000000, float 0x3FDAAAAAA0000000, float 0x3FDAAAAAA0000000, float 0x3FDAAAAAA0000000>
  %47 = tail call reassoc nsz arcp contract afn <4 x float> @llvm.x86.sse.min.ps(<4 x float> %46, <4 x float> <float 1.290000e+02, float 1.290000e+02, float 1.290000e+02, float 1.290000e+02>)
  %48 = tail call reassoc nsz arcp contract afn <4 x float> @llvm.x86.sse.max.ps(<4 x float> %47, <4 x float> <float 0xC05FBFFFE0000000, float 0xC05FBFFFE0000000, float 0xC05FBFFFE0000000, float 0xC05FBFFFE0000000>)
  %49 = fadd reassoc nsz arcp contract afn <4 x float> %48, <float -5.000000e-01, float -5.000000e-01, float -5.000000e-01, float -5.000000e-01>
  %50 = tail call <4 x i32> @llvm.x86.sse2.cvtps2dq(<4 x float> %49)
  %51 = sitofp <4 x i32> %50 to <4 x float>
  %52 = fcmp reassoc nsz arcp contract afn ugt float %12, 0x3F69A5C380000000
  br i1 %52, label %55, label %53

53:                                               ; preds = %2
  %54 = fmul reassoc nsz arcp contract afn float %12, 0x4029D70A40000000
  br label %74

55:                                               ; preds = %2
  %56 = extractelement <4 x float> %51, i64 0
  %57 = fsub reassoc nsz arcp contract afn <4 x float> %48, %51
  %58 = extractelement <4 x float> %57, i64 0
  %59 = fmul reassoc nsz arcp contract afn float %58, 0x3F8BB7CD20000000
  %60 = fadd reassoc nsz arcp contract afn float %59, 0x3FAAA13F20000000
  %61 = fmul reassoc nsz arcp contract afn float %60, %58
  %62 = fadd reassoc nsz arcp contract afn float %61, 0x3FCEE798A0000000
  %63 = fmul reassoc nsz arcp contract afn float %62, %58
  %64 = fadd reassoc nsz arcp contract afn float %63, 0x3FE62D1660000000
  %65 = fmul reassoc nsz arcp contract afn float %64, %58
  %66 = fadd reassoc nsz arcp contract afn float %65, 0x3FF00002C0000000
  %67 = fptosi float %56 to i32
  %68 = shl i32 %67, 23
  %69 = add i32 %68, 1065353216
  %70 = bitcast i32 %69 to float
  %71 = fmul reassoc nsz arcp contract afn float %66, %70
  %72 = fmul reassoc nsz arcp contract afn float %71, 0x3FF0E147A0000000
  %73 = fadd reassoc nsz arcp contract afn float %72, 0xBFAC28F5C0000000
  br label %74

74:                                               ; preds = %55, %53
  %75 = phi reassoc nsz arcp contract afn float [ %54, %53 ], [ %73, %55 ]
  %76 = extractelement <4 x float> %51, i64 3
  %77 = fsub reassoc nsz arcp contract afn <4 x float> %48, %51
  %78 = extractelement <4 x float> %77, i64 3
  %79 = fmul reassoc nsz arcp contract afn float %78, 0x3F8BB7CD20000000
  %80 = fadd reassoc nsz arcp contract afn float %79, 0x3FAAA13F20000000
  %81 = fmul reassoc nsz arcp contract afn float %80, %78
  %82 = fadd reassoc nsz arcp contract afn float %81, 0x3FCEE798A0000000
  %83 = fmul reassoc nsz arcp contract afn float %82, %78
  %84 = fadd reassoc nsz arcp contract afn float %83, 0x3FE62D1660000000
  %85 = fmul reassoc nsz arcp contract afn float %84, %78
  %86 = fadd reassoc nsz arcp contract afn float %85, 0x3FF00002C0000000
  %87 = fptosi float %76 to i32
  %88 = shl i32 %87, 23
  %89 = add i32 %88, 1065353216
  %90 = bitcast i32 %89 to float
  %91 = fmul reassoc nsz arcp contract afn float %86, %90
  %92 = fmul reassoc nsz arcp contract afn float %22, 0.000000e+00
  %93 = fmul reassoc nsz arcp contract afn <2 x float> %20, <float 0x4029D70A40000000, float 0x4029D70A40000000>
  store float %75, ptr %1, align 4, !tbaa !12
  %94 = fcmp reassoc nsz arcp contract afn ugt <2 x float> %20, <float 0x3F69A5C380000000, float 0x3F69A5C380000000>
  %95 = getelementptr inbounds i8, ptr %1, i64 4
  %96 = shufflevector <4 x float> %51, <4 x float> poison, <2 x i32> <i32 1, i32 2>
  %97 = fsub reassoc nsz arcp contract afn <4 x float> %48, %51
  %98 = shufflevector <4 x float> %97, <4 x float> poison, <2 x i32> <i32 1, i32 2>
  %99 = fmul reassoc nsz arcp contract afn <2 x float> %98, <float 0x3F8BB7CD20000000, float 0x3F8BB7CD20000000>
  %100 = fadd reassoc nsz arcp contract afn <2 x float> %99, <float 0x3FAAA13F20000000, float 0x3FAAA13F20000000>
  %101 = fmul reassoc nsz arcp contract afn <2 x float> %100, %98
  %102 = fadd reassoc nsz arcp contract afn <2 x float> %101, <float 0x3FCEE798A0000000, float 0x3FCEE798A0000000>
  %103 = fmul reassoc nsz arcp contract afn <2 x float> %102, %98
  %104 = fadd reassoc nsz arcp contract afn <2 x float> %103, <float 0x3FE62D1660000000, float 0x3FE62D1660000000>
  %105 = fmul reassoc nsz arcp contract afn <2 x float> %104, %98
  %106 = fadd reassoc nsz arcp contract afn <2 x float> %105, <float 0x3FF00002C0000000, float 0x3FF00002C0000000>
  %107 = fptosi <2 x float> %96 to <2 x i32>
  %108 = shl <2 x i32> %107, <i32 23, i32 23>
  %109 = add <2 x i32> %108, <i32 1065353216, i32 1065353216>
  %110 = bitcast <2 x i32> %109 to <2 x float>
  %111 = fmul reassoc nsz arcp contract afn <2 x float> %106, %110
  %112 = fmul reassoc nsz arcp contract afn <2 x float> %111, <float 0x3FF0E147A0000000, float 0x3FF0E147A0000000>
  %113 = fadd reassoc nsz arcp contract afn <2 x float> %112, <float 0xBFAC28F5C0000000, float 0xBFAC28F5C0000000>
  %114 = select <2 x i1> %94, <2 x float> %113, <2 x float> %93
  store <2 x float> %114, ptr %95, align 4, !tbaa !12
  %115 = fcmp reassoc nsz arcp contract afn ugt float %23, 0x3F69A5C380000000
  %116 = fmul reassoc nsz arcp contract afn float %91, 0x3FF0E147A0000000
  %117 = fadd reassoc nsz arcp contract afn float %116, 0xBFAC28F5C0000000
  %118 = select reassoc nsz arcp contract afn i1 %115, float %117, float %92
  %119 = getelementptr inbounds i8, ptr %1, i64 12
  store float %118, ptr %119, align 4, !tbaa !12
  ret void
}

; Function Attrs: nounwind uwtable
define internal fastcc void @_paint_hue(ptr nocapture readonly %0) unnamed_addr #1 {
  %2 = alloca [4 x float], align 16
  %3 = alloca [4 x float], align 16
  %4 = getelementptr inbounds i8, ptr %0, i64 112
  %5 = load ptr, ptr %4, align 16, !tbaa !110
  %6 = tail call reassoc nsz arcp contract afn float @dt_bauhaus_slider_get_hard_min(ptr noundef %5) #21
  %7 = load ptr, ptr %4, align 16, !tbaa !110
  %8 = tail call reassoc nsz arcp contract afn float @dt_bauhaus_slider_get_hard_max(ptr noundef %7) #21
  %9 = fsub reassoc nsz arcp contract afn float %8, %6
  %10 = getelementptr inbounds i8, ptr %3, i64 4
  %11 = getelementptr inbounds i8, ptr %3, i64 8
  %12 = getelementptr inbounds i8, ptr %2, i64 4
  %13 = getelementptr inbounds i8, ptr %2, i64 8
  br label %18

14:                                               ; preds = %18
  %15 = load ptr, ptr %4, align 16, !tbaa !110
  tail call void @gtk_widget_queue_draw(ptr noundef %15) #21
  %16 = getelementptr inbounds i8, ptr %0, i64 128
  %17 = load ptr, ptr %16, align 16, !tbaa !152
  tail call void @gtk_widget_queue_draw(ptr noundef %17) #21
  ret void

18:                                               ; preds = %18, %1
  %19 = phi i32 [ 0, %1 ], [ %42, %18 ]
  %20 = sitofp i32 %19 to float
  %21 = fmul reassoc nsz arcp contract afn float %20, 0x3FAAF286C0000000
  %22 = fmul reassoc nsz arcp contract afn float %21, %9
  %23 = fadd reassoc nsz arcp contract afn float %22, %6
  call void @llvm.lifetime.start.p0(i64 16, ptr nonnull %2) #21
  call void @llvm.memset.p0.i64(ptr noundef nonnull align 16 dereferenceable(16) %2, i8 0, i64 16, i1 false)
  call void @llvm.lifetime.start.p0(i64 16, ptr nonnull %3) #21
  %24 = fmul reassoc nsz arcp contract afn float %23, 0x3F81A7B960000000
  %25 = fadd reassoc nsz arcp contract afn float %24, 0x3FC1A7B960000000
  %26 = insertelement <2 x float> poison, float %25, i64 0
  %27 = shufflevector <2 x float> %26, <2 x float> poison, <2 x i32> zeroinitializer
  %28 = fmul reassoc nsz arcp contract afn <2 x float> %27, <float 0x3FC07004C0000000, float 0.000000e+00>
  %29 = insertelement <2 x float> %28, float %25, i64 0
  %30 = fcmp reassoc nsz arcp contract afn ogt <2 x float> %29, <float 0x3FCA7B9620000000, float 0x3FCA7B9620000000>
  %31 = fmul reassoc nsz arcp contract afn <2 x float> %29, %29
  %32 = fmul reassoc nsz arcp contract afn <2 x float> %31, %29
  %33 = fadd reassoc nsz arcp contract afn <2 x float> %28, <float 0xBF922354C0000000, float 0xBF922354C0000000>
  %34 = select <2 x i1> %30, <2 x float> %32, <2 x float> %33
  %35 = extractelement <2 x float> %34, i64 0
  %36 = fmul reassoc nsz arcp contract afn float %35, 0x3FEEDABA00000000
  store float %36, ptr %3, align 16, !tbaa !12
  store float %35, ptr %10, align 4, !tbaa !12
  %37 = fmul reassoc nsz arcp contract afn <2 x float> %34, <float 0x3FEA6594A0000000, float 0.000000e+00>
  store <2 x float> %37, ptr %11, align 8, !tbaa !12
  call fastcc void @dt_XYZ_to_sRGB(ptr noundef nonnull %3, ptr noundef nonnull %2)
  %38 = load ptr, ptr %4, align 16, !tbaa !110
  %39 = load float, ptr %2, align 16, !tbaa !12
  %40 = load float, ptr %12, align 4, !tbaa !12
  %41 = load float, ptr %13, align 8, !tbaa !12
  tail call void @dt_bauhaus_slider_set_stop(ptr noundef %38, float noundef %21, float noundef %39, float noundef %40, float noundef %41) #21
  call void @llvm.lifetime.end.p0(i64 16, ptr nonnull %3) #21
  call void @llvm.lifetime.end.p0(i64 16, ptr nonnull %2) #21
  %42 = add nuw nsw i32 %19, 1
  %43 = icmp eq i32 %42, 20
  br i1 %43, label %14, label %18
}