; Function Attrs: nounwind uwtable
define internal fastcc void @_paint_hue(ptr nocapture readonly %0) unnamed_addr #12 {
  %2 = getelementptr inbounds i8, ptr %0, i64 112
  %3 = load ptr, ptr %2, align 16, !tbaa !110
  %4 = tail call reassoc nsz arcp contract afn float @dt_bauhaus_slider_get_hard_min(ptr noundef %3) #21
  %5 = load ptr, ptr %2, align 16, !tbaa !110
  %6 = tail call reassoc nsz arcp contract afn float @dt_bauhaus_slider_get_hard_max(ptr noundef %5) #21
  %7 = fsub reassoc nsz arcp contract afn float %6, %4
  br label %12

8:                                                ; preds = %dt_XYZ_to_sRGB.exit
  %9 = load ptr, ptr %2, align 16, !tbaa !110
  tail call void @gtk_widget_queue_draw(ptr noundef %9) #21
  %10 = getelementptr inbounds i8, ptr %0, i64 128
  %11 = load ptr, ptr %10, align 16, !tbaa !151
  tail call void @gtk_widget_queue_draw(ptr noundef %11) #21
  ret void

12:                                               ; preds = %dt_XYZ_to_sRGB.exit, %1
  %13 = phi i32 [ 0, %1 ], [ %113, %dt_XYZ_to_sRGB.exit ]
  %14 = sitofp i32 %13 to float
  %15 = fmul reassoc nsz arcp contract afn float %14, 0x3FAAF286C0000000
  %16 = fmul reassoc nsz arcp contract afn float %15, %7
  %17 = fadd reassoc nsz arcp contract afn float %16, %4
  %18 = fmul reassoc nsz arcp contract afn float %17, 0x3F81A7B960000000
  %19 = fadd reassoc nsz arcp contract afn float %18, 0x3FC1A7B960000000
  %20 = insertelement <2 x float> poison, float %19, i64 0
  %21 = shufflevector <2 x float> %20, <2 x float> poison, <2 x i32> zeroinitializer
  %22 = fmul reassoc nsz arcp contract afn <2 x float> %21, <float 0x3FC07004C0000000, float 0.000000e+00>
  %23 = insertelement <2 x float> %22, float %19, i64 0
  %24 = fcmp reassoc nsz arcp contract afn ogt <2 x float> %23, <float 0x3FCA7B9620000000, float 0x3FCA7B9620000000>
  %25 = fmul reassoc nsz arcp contract afn <2 x float> %23, %23
  %26 = fmul reassoc nsz arcp contract afn <2 x float> %25, %23
  %27 = fadd reassoc nsz arcp contract afn <2 x float> %22, <float 0xBF922354C0000000, float poison>
  %28 = select <2 x i1> %24, <2 x float> %26, <2 x float> %27
  %29 = extractelement <2 x float> %28, i64 0
  %30 = fmul reassoc nsz arcp contract afn float %29, 0x3FEEDABA00000000
  %.sroa.0.0.vec.insert = insertelement <2 x float> poison, float %30, i64 0
  %.sroa.0.4.vec.insert = shufflevector <2 x float> %.sroa.0.0.vec.insert, <2 x float> %28, <2 x i32> <i32 0, i32 2>
  %.sroa.5.8.vec.extract = fmul reassoc nsz arcp contract afn float %29, 0x3FEA6594A0000000
  %31 = fmul reassoc nsz arcp contract afn float %29, 0x3FF0005DC0000000
  %32 = fmul reassoc nsz arcp contract afn <2 x float> %.sroa.0.4.vec.insert, <float 0x3FB26B01E0000000, float 0x3FFEA88400000000>
  %33 = shufflevector <2 x float> %32, <2 x float> poison, <2 x i32> <i32 1, i32 0>
  %34 = fmul reassoc nsz arcp contract afn <2 x float> %.sroa.0.4.vec.insert, <float 0xBFEF521220000000, float 0xBFCD4F9720000000>
  %35 = insertelement <2 x float> poison, float %.sroa.5.8.vec.extract, i64 0
  %36 = shufflevector <2 x float> %35, <2 x float> poison, <2 x i32> zeroinitializer
  %37 = fmul reassoc nsz arcp contract afn <2 x float> %36, <float 0x3FA120E200000000, float 0x3FF67BDFC0000000>
  %38 = fadd reassoc nsz arcp contract afn <2 x float> %37, %34
  %39 = fadd reassoc nsz arcp contract afn <2 x float> %38, %33
  %40 = fmul reassoc nsz arcp contract afn float %29, 0.000000e+00
  %41 = shufflevector <2 x float> %39, <2 x float> poison, <4 x i32> <i32 poison, i32 0, i32 1, i32 poison>
  %42 = insertelement <4 x float> %41, float %31, i64 0
  %43 = insertelement <4 x float> %42, float %40, i64 3
  %44 = bitcast <4 x float> %43 to <4 x i32>
  %45 = and <4 x i32> %44, <i32 8388607, i32 8388607, i32 8388607, i32 8388607>
  %46 = or disjoint <4 x i32> %45, <i32 1065353216, i32 1065353216, i32 1065353216, i32 1065353216>
  %47 = bitcast <4 x i32> %46 to <4 x float>
  %48 = lshr <4 x i32> %44, <i32 23, i32 23, i32 23, i32 23>
  %49 = and <4 x i32> %48, <i32 255, i32 255, i32 255, i32 255>
  %50 = add nsw <4 x i32> %49, <i32 -127, i32 -127, i32 -127, i32 -127>
  %51 = sitofp <4 x i32> %50 to <4 x float>
  %52 = fmul reassoc nsz arcp contract afn <4 x float> %47, <float 0x3FAE8AA5E0000000, float 0x3FAE8AA5E0000000, float 0x3FAE8AA5E0000000, float 0x3FAE8AA5E0000000>
  %53 = fadd reassoc nsz arcp contract afn <4 x float> %52, <float 0xBFDDCE72E0000000, float 0xBFDDCE72E0000000, float 0xBFDDCE72E0000000, float 0xBFDDCE72E0000000>
  %54 = fmul reassoc nsz arcp contract afn <4 x float> %53, %47
  %55 = fadd reassoc nsz arcp contract afn <4 x float> %54, <float 0x3FF7B2DBA0000000, float 0x3FF7B2DBA0000000, float 0x3FF7B2DBA0000000, float 0x3FF7B2DBA0000000>
  %56 = fmul reassoc nsz arcp contract afn <4 x float> %55, %47
  %57 = fadd reassoc nsz arcp contract afn <4 x float> %56, <float 0xC0042A7EC0000000, float 0xC0042A7EC0000000, float 0xC0042A7EC0000000, float 0xC0042A7EC0000000>
  %58 = fmul reassoc nsz arcp contract afn <4 x float> %57, %47
  %59 = fadd reassoc nsz arcp contract afn <4 x float> %58, <float 0x40071B2D80000000, float 0x40071B2D80000000, float 0x40071B2D80000000, float 0x40071B2D80000000>
  %60 = fadd reassoc nsz arcp contract afn <4 x float> %47, <float -1.000000e+00, float -1.000000e+00, float -1.000000e+00, float -1.000000e+00>
  %61 = fmul reassoc nsz arcp contract afn <4 x float> %59, %60
  %62 = fadd reassoc nsz arcp contract afn <4 x float> %61, %51
  %63 = fmul reassoc nsz arcp contract afn <4 x float> %62, <float 0x3FDAAAAAA0000000, float 0x3FDAAAAAA0000000, float 0x3FDAAAAAA0000000, float 0x3FDAAAAAA0000000>
  %64 = tail call reassoc nsz arcp contract afn <4 x float> @llvm.x86.sse.min.ps(<4 x float> %63, <4 x float> <float 1.290000e+02, float 1.290000e+02, float 1.290000e+02, float 1.290000e+02>)
  %65 = tail call reassoc nsz arcp contract afn <4 x float> @llvm.x86.sse.max.ps(<4 x float> %64, <4 x float> <float 0xC05FBFFFE0000000, float 0xC05FBFFFE0000000, float 0xC05FBFFFE0000000, float 0xC05FBFFFE0000000>)
  %66 = fadd reassoc nsz arcp contract afn <4 x float> %65, <float -5.000000e-01, float -5.000000e-01, float -5.000000e-01, float -5.000000e-01>
  %67 = tail call <4 x i32> @llvm.x86.sse2.cvtps2dq(<4 x float> %66)
  %68 = sitofp <4 x i32> %67 to <4 x float>
  %69 = fcmp reassoc nsz arcp contract afn ugt float %31, 0x3F69A5C380000000
  %70 = fsub reassoc nsz arcp contract afn <4 x float> %65, %68
  br i1 %69, label %73, label %71

71:                                               ; preds = %12
  %72 = fmul reassoc nsz arcp contract afn float %29, 0x4029D7A1A0000000
  br label %dt_XYZ_to_sRGB.exit

73:                                               ; preds = %12
  %74 = extractelement <4 x float> %68, i64 0
  %75 = extractelement <4 x float> %70, i64 0
  %76 = fmul reassoc nsz arcp contract afn float %75, 0x3F8BB7CD20000000
  %77 = fadd reassoc nsz arcp contract afn float %76, 0x3FAAA13F20000000
  %78 = fmul reassoc nsz arcp contract afn float %77, %75
  %79 = fadd reassoc nsz arcp contract afn float %78, 0x3FCEE798A0000000
  %80 = fmul reassoc nsz arcp contract afn float %79, %75
  %81 = fadd reassoc nsz arcp contract afn float %80, 0x3FE62D1660000000
  %82 = fmul reassoc nsz arcp contract afn float %81, %75
  %83 = fadd reassoc nsz arcp contract afn float %82, 0x3FF00002C0000000
  %84 = fptosi float %74 to i32
  %85 = shl i32 %84, 23
  %86 = add i32 %85, 1065353216
  %87 = bitcast i32 %86 to float
  %88 = fmul reassoc nsz arcp contract afn float %87, 0x3FF0E147A0000000
  %89 = fmul reassoc nsz arcp contract afn float %88, %83
  %90 = fadd reassoc nsz arcp contract afn float %89, 0xBFAC28F5C0000000
  br label %dt_XYZ_to_sRGB.exit

dt_XYZ_to_sRGB.exit:                              ; preds = %71, %73
  %91 = phi reassoc nsz arcp contract afn float [ %90, %73 ], [ %72, %71 ]
  %92 = fmul reassoc nsz arcp contract afn <2 x float> %39, <float 0x4029D70A40000000, float 0x4029D70A40000000>
  %93 = fcmp reassoc nsz arcp contract afn ugt <2 x float> %39, <float 0x3F69A5C380000000, float 0x3F69A5C380000000>
  %94 = shufflevector <4 x float> %68, <4 x float> poison, <2 x i32> <i32 1, i32 2>
  %95 = shufflevector <4 x float> %70, <4 x float> poison, <2 x i32> <i32 1, i32 2>
  %96 = fmul reassoc nsz arcp contract afn <2 x float> %95, <float 0x3F8BB7CD20000000, float 0x3F8BB7CD20000000>
  %97 = fadd reassoc nsz arcp contract afn <2 x float> %96, <float 0x3FAAA13F20000000, float 0x3FAAA13F20000000>
  %98 = fmul reassoc nsz arcp contract afn <2 x float> %97, %95
  %99 = fadd reassoc nsz arcp contract afn <2 x float> %98, <float 0x3FCEE798A0000000, float 0x3FCEE798A0000000>
  %100 = fmul reassoc nsz arcp contract afn <2 x float> %99, %95
  %101 = fadd reassoc nsz arcp contract afn <2 x float> %100, <float 0x3FE62D1660000000, float 0x3FE62D1660000000>
  %102 = fmul reassoc nsz arcp contract afn <2 x float> %101, %95
  %103 = fadd reassoc nsz arcp contract afn <2 x float> %102, <float 0x3FF00002C0000000, float 0x3FF00002C0000000>
  %104 = fptosi <2 x float> %94 to <2 x i32>
  %105 = shl <2 x i32> %104, <i32 23, i32 23>
  %106 = add <2 x i32> %105, <i32 1065353216, i32 1065353216>
  %107 = bitcast <2 x i32> %106 to <2 x float>
  %108 = fmul reassoc nsz arcp contract afn <2 x float> %107, <float 0x3FF0E147A0000000, float 0x3FF0E147A0000000>
  %109 = fmul reassoc nsz arcp contract afn <2 x float> %108, %103
  %110 = fadd reassoc nsz arcp contract afn <2 x float> %109, <float 0xBFAC28F5C0000000, float 0xBFAC28F5C0000000>
  %111 = select <2 x i1> %93, <2 x float> %110, <2 x float> %92
  %112 = load ptr, ptr %2, align 16, !tbaa !110
  %.sroa.54.4.vec.extract = extractelement <2 x float> %111, i64 0
  %.sroa.54.8.vec.extract = extractelement <2 x float> %111, i64 1
  tail call void @dt_bauhaus_slider_set_stop(ptr noundef %112, float noundef %15, float noundef %91, float noundef %.sroa.54.4.vec.extract, float noundef %.sroa.54.8.vec.extract) #21
  %113 = add nuw nsw i32 %13, 1
  %114 = icmp eq i32 %113, 20
  br i1 %114, label %8, label %12
}